; Function Attrs: mustprogress uwtable
define hidden void @_ZN4cvc58internal6theory6Theory19processCarePairArgsENS0_12NodeTemplateILb0EEES4_(ptr nocapture noundef nonnull readonly align 8 dereferenceable(408) %this, ptr nocapture noundef readonly %a, ptr nocapture noundef readonly %b) unnamed_addr #3 align 2 personality ptr @__gxx_personality_v0 {
entry:
  %agg.tmp = alloca %"class.cvc5::internal::NodeTemplate", align 8
  %agg.tmp2 = alloca %"class.cvc5::internal::NodeTemplate", align 8
  %agg.tmp5 = alloca %"class.cvc5::internal::NodeTemplate", align 8
  %agg.tmp6 = alloca %"class.cvc5::internal::NodeTemplate", align 8
  %d_theoryState = getelementptr inbounds i8, ptr %this, i64 176
  %0 = load ptr, ptr %d_theoryState, align 8
  %1 = load ptr, ptr %a, align 8
  store ptr %1, ptr %agg.tmp, align 8
  %2 = load ptr, ptr %b, align 8
  store ptr %2, ptr %agg.tmp2, align 8
  %vtable = load ptr, ptr %0, align 8
  %vfn = getelementptr inbounds i8, ptr %vtable, i64 40
  %3 = load ptr, ptr %vfn, align 8
  %call = call noundef zeroext i1 %3(ptr noundef nonnull align 8 dereferenceable(80) %0, ptr noundef nonnull %agg.tmp, ptr noundef nonnull %agg.tmp2)
  br i1 %call, label %return, label %if.end

if.end:                                           ; preds = %entry
  %4 = load ptr, ptr %a, align 8
  store ptr %4, ptr %agg.tmp5, align 8
  %5 = load ptr, ptr %b, align 8
  store ptr %5, ptr %agg.tmp6, align 8
  call void @_ZN4cvc58internal6theory6Theory15addCarePairArgsENS0_12NodeTemplateILb0EEES4_(ptr noundef nonnull align 8 dereferenceable(408) %this, ptr noundef nonnull %agg.tmp5, ptr noundef nonnull %agg.tmp6)
  br label %return

return:                                           ; preds = %if.end, %entry
  ret void
}